; Function Attrs: nounwind uwtable
define internal fastcc ptr @create_edata_for_relation(ptr noundef %0) unnamed_addr #0 {
  %2 = alloca ptr, align 8
  call void @llvm.lifetime.start.p0(i64 8, ptr nonnull %2) #17
  store ptr null, ptr %2, align 8
  %3 = tail call ptr @palloc0(i64 noundef 40) #17
  %4 = getelementptr inbounds nuw i8, ptr %3, i64 8
  store ptr %0, ptr %4, align 8
  %5 = tail call ptr @CreateExecutorState() #17
  store ptr %5, ptr %3, align 8
  %6 = tail call noundef ptr @palloc0(i64 noundef 224) #17
  store i32 101, ptr %6, align 4
  %7 = getelementptr inbounds nuw i8, ptr %6, i64 24
  store i32 0, ptr %7, align 8
  %8 = getelementptr inbounds nuw i8, ptr %0, i64 72
  %9 = load ptr, ptr %8, align 8
  %10 = getelementptr inbounds nuw i8, ptr %9, i64 72
  %11 = load i32, ptr %10, align 8
  %12 = getelementptr inbounds nuw i8, ptr %6, i64 28
  store i32 %11, ptr %12, align 4
  %13 = load ptr, ptr %8, align 8
  %14 = getelementptr inbounds nuw i8, ptr %13, i64 56
  %15 = load ptr, ptr %14, align 8
  %16 = getelementptr inbounds nuw i8, ptr %15, i64 115
  %17 = load i8, ptr %16, align 1
  %18 = getelementptr inbounds nuw i8, ptr %6, i64 33
  store i8 %17, ptr %18, align 1
  %19 = getelementptr inbounds nuw i8, ptr %6, i64 36
  store i32 1, ptr %19, align 4
  %20 = call ptr @addRTEPermissionInfo(ptr noundef nonnull %2, ptr noundef nonnull %6) #17
  %21 = call ptr @list_make1_impl(i32 noundef 1, ptr nonnull %6) #17
  %22 = load ptr, ptr %2, align 8
  %23 = call ptr @bms_make_singleton(i32 noundef 1) #17
  call void @ExecInitRangeTable(ptr noundef %5, ptr noundef %21, ptr noundef %22, ptr noundef %23) #17
  %24 = call noundef ptr @palloc0(i64 noundef 392) #17
  store i32 387, ptr %24, align 4
  %25 = getelementptr inbounds nuw i8, ptr %3, i64 16
  store ptr %24, ptr %25, align 8
  %26 = load ptr, ptr %8, align 8
  call void @InitResultRelInfo(ptr noundef nonnull %24, ptr noundef %26, i32 noundef 1, ptr noundef null, i32 noundef 0) #17
  %27 = getelementptr inbounds nuw i8, ptr %5, i64 136
  %28 = load ptr, ptr %27, align 8
  %29 = call ptr @lappend(ptr noundef %28, ptr noundef nonnull %24) #17
  store ptr %29, ptr %27, align 8
  %30 = call i32 @GetCurrentCommandId(i1 noundef zeroext true) #17
  %31 = getelementptr inbounds nuw i8, ptr %5, i64 120
  store i32 %30, ptr %31, align 8
  call void @AfterTriggerBeginQuery() #17
  call void @llvm.lifetime.end.p0(i64 8, ptr nonnull %2) #17
  ret ptr %3
}